; Function Attrs: nounwind uwtable
define hidden i32 @Curl_cpool_add_pollfds(ptr noundef %0, ptr noundef %1) local_unnamed_addr #0 {
  %.not = icmp eq ptr %0, null
  br i1 %.not, label %.thread, label %4

.thread:                                          ; preds = %2
  %3 = tail call fastcc i32 @cpool_add_pollfds(ptr noundef null, ptr noundef %1)
  br label %31

4:                                                ; preds = %2
  %5 = getelementptr inbounds nuw i8, ptr %0, i64 136
  %6 = load ptr, ptr %5, align 8, !tbaa !81
  %.not16 = icmp eq ptr %6, null
  br i1 %.not16, label %15, label %7

7:                                                ; preds = %4
  %8 = getelementptr inbounds nuw i8, ptr %6, i64 4
  %9 = load i32, ptr %8, align 4, !tbaa !89
  %10 = and i32 %9, 32
  %.not17 = icmp eq i32 %10, 0
  br i1 %.not17, label %15, label %11

11:                                               ; preds = %7
  %12 = getelementptr inbounds nuw i8, ptr %0, i64 120
  %13 = load ptr, ptr %12, align 8, !tbaa !3
  %14 = tail call i32 @Curl_share_lock(ptr noundef %13, i32 noundef 5, i32 noundef 2) #8
  br label %15

15:                                               ; preds = %4, %7, %11
  %16 = getelementptr inbounds nuw i8, ptr %0, i64 152
  %17 = load i8, ptr %16, align 8
  %18 = or i8 %17, 1
  store i8 %18, ptr %16, align 8
  %19 = tail call fastcc i32 @cpool_add_pollfds(ptr noundef nonnull %0, ptr noundef %1)
  %20 = load i8, ptr %16, align 8
  %21 = and i8 %20, -2
  store i8 %21, ptr %16, align 8
  %22 = load ptr, ptr %5, align 8, !tbaa !81
  %.not18 = icmp eq ptr %22, null
  br i1 %.not18, label %31, label %23

23:                                               ; preds = %15
  %24 = getelementptr inbounds nuw i8, ptr %22, i64 4
  %25 = load i32, ptr %24, align 4, !tbaa !89
  %26 = and i32 %25, 32
  %.not19 = icmp eq i32 %26, 0
  br i1 %.not19, label %31, label %27

27:                                               ; preds = %23
  %28 = getelementptr inbounds nuw i8, ptr %0, i64 120
  %29 = load ptr, ptr %28, align 8, !tbaa !3
  %30 = tail call i32 @Curl_share_unlock(ptr noundef %29, i32 noundef 5) #8
  br label %31

31:                                               ; preds = %.thread, %15, %23, %27
  %phi.call21 = phi i32 [ %3, %.thread ], [ %19, %15 ], [ %19, %23 ], [ %19, %27 ]
  ret i32 %phi.call21
}